; Function Attrs: mustprogress nounwind uwtable
define noundef zeroext i1 @_ZN5boost6fibers15recursive_mutex8try_lockEv(ptr noundef nonnull align 8 dereferenceable(40) %0) local_unnamed_addr #5 align 2 personality ptr @__gxx_personality_v0 {
  %2 = tail call noundef ptr @_ZN5boost6fibers7context6activeEv() #19
  tail call void @_ZN5boost6fibers6detail13spinlock_ttas4lockEv(ptr noundef nonnull align 4 dereferenceable(4) %0) #19
  %3 = getelementptr inbounds nuw i8, ptr %0, i64 24
  %4 = load ptr, ptr %3, align 8, !tbaa !10
  %5 = icmp eq ptr %4, null
  br i1 %5, label %6, label %8

6:                                                ; preds = %1
  store ptr %2, ptr %3, align 8, !tbaa !10
  %7 = getelementptr inbounds nuw i8, ptr %0, i64 32
  store i64 1, ptr %7, align 8, !tbaa !24
  br label %_ZNSt11unique_lockIN5boost6fibers6detail13spinlock_ttasEED2Ev.exit

8:                                                ; preds = %1
  %9 = icmp eq ptr %2, %4
  br i1 %9, label %10, label %_ZNSt11unique_lockIN5boost6fibers6detail13spinlock_ttasEED2Ev.exit

10:                                               ; preds = %8
  %11 = getelementptr inbounds nuw i8, ptr %0, i64 32
  %12 = load i64, ptr %11, align 8, !tbaa !24
  %13 = add i64 %12, 1
  store i64 %13, ptr %11, align 8, !tbaa !24
  br label %_ZNSt11unique_lockIN5boost6fibers6detail13spinlock_ttasEED2Ev.exit

_ZNSt11unique_lockIN5boost6fibers6detail13spinlock_ttasEED2Ev.exit: ; preds = %6, %10, %8
  store atomic i32 1, ptr %0 release, align 8
  %14 = tail call noundef ptr @_ZN5boost6fibers7context6activeEv() #19
  tail call void @_ZN5boost6fibers7context5yieldEv(ptr noundef nonnull align 8 dereferenceable(232) %14) #19
  %15 = load ptr, ptr %3, align 8, !tbaa !10
  %16 = icmp eq ptr %2, %15
  ret i1 %16
}